target datalayout = "e-m:e-p270:32:32-p271:32:32-p272:64:64-i64:64-i128:128-f80:128-n8:16:32:64-S128"
target triple = "x86_64-pc-linux-gnu"

%struct.AVChannelLayout = type { i32, i32, %union.anon.1, ptr }
%union.anon.1 = type { i64 }
%struct.AVRational = type { i32, i32 }
%struct.AVFilterContext = type { ptr, ptr, ptr, ptr, ptr, i32, ptr, ptr, i32, ptr, ptr, i32, i32, ptr, ptr, ptr, ptr, i32, ptr, i32, i32 }
%struct.ColorizeContext = type { ptr, float, float, float, float, i32, [3 x i32], [4 x i32], [4 x i32], [2 x ptr] }
%struct.AVFrame = type { [8 x ptr], [8 x i32], ptr, i32, i32, i32, i32, i32, %struct.AVRational, i64, i64, %struct.AVRational, i32, ptr, i32, i32, [8 x ptr], ptr, i32, ptr, i32, i32, i32, i32, i32, i32, i32, i64, ptr, i32, ptr, ptr, i64, i64, i64, i64, ptr, %struct.AVChannelLayout, i64 }

; Function Attrs: inlinehint nounwind uwtable
define internal float @lerpf(float noundef %0, float noundef %1, float noundef %2) #7 {
  %4 = alloca float, align 4
  %5 = alloca float, align 4
  %6 = alloca float, align 4
  store float %0, ptr %4, align 4, !tbaa !41
  store float %1, ptr %5, align 4, !tbaa !41
  store float %2, ptr %6, align 4, !tbaa !41
  %7 = load float, ptr %4, align 4, !tbaa !41
  %8 = load float, ptr %5, align 4, !tbaa !41
  %9 = load float, ptr %4, align 4, !tbaa !41
  %10 = fsub nsz float %8, %9
  %11 = load float, ptr %6, align 4, !tbaa !41
  %12 = call nsz float @llvm.fmuladd.f32(float %10, float %11, float %7)
  ret float %12
}

; Function Attrs: nounwind uwtable
define internal i32 @colorizey_slice8(ptr noundef %0, ptr noundef %1, i32 noundef %2, i32 noundef %3) #1 {
  %5 = alloca ptr, align 8
  %6 = alloca ptr, align 8
  %7 = alloca i32, align 4
  %8 = alloca i32, align 4
  %9 = alloca ptr, align 8
  %10 = alloca ptr, align 8
  %11 = alloca i32, align 4
  %12 = alloca i32, align 4
  %13 = alloca i32, align 4
  %14 = alloca i32, align 4
  %15 = alloca i64, align 8
  %16 = alloca ptr, align 8
  %17 = alloca i32, align 4
  %18 = alloca float, align 4
  %19 = alloca i32, align 4
  %20 = alloca i32, align 4
  %21 = alloca i32, align 4
  store ptr %0, ptr %5, align 8, !tbaa !23
  store ptr %1, ptr %6, align 8, !tbaa !56
  store i32 %2, ptr %7, align 4, !tbaa !43
  store i32 %3, ptr %8, align 4, !tbaa !43
  call void @llvm.lifetime.start.p0(i64 8, ptr %9) #8
  %22 = load ptr, ptr %5, align 8, !tbaa !23
  %23 = getelementptr inbounds nuw %struct.AVFilterContext, ptr %22, i32 0, i32 9
  %24 = load ptr, ptr %23, align 8, !tbaa !24
  store ptr %24, ptr %9, align 8, !tbaa !34
  call void @llvm.lifetime.start.p0(i64 8, ptr %10) #8
  %25 = load ptr, ptr %6, align 8, !tbaa !56
  store ptr %25, ptr %10, align 8, !tbaa !9
  call void @llvm.lifetime.start.p0(i64 4, ptr %11) #8
  %26 = load ptr, ptr %9, align 8, !tbaa !34
  %27 = getelementptr inbounds nuw %struct.ColorizeContext, ptr %26, i32 0, i32 7
  %28 = getelementptr inbounds [4 x i32], ptr %27, i64 0, i64 0
  %29 = load i32, ptr %28, align 8, !tbaa !43
  store i32 %29, ptr %11, align 4, !tbaa !43
  call void @llvm.lifetime.start.p0(i64 4, ptr %12) #8
  %30 = load ptr, ptr %9, align 8, !tbaa !34
  %31 = getelementptr inbounds nuw %struct.ColorizeContext, ptr %30, i32 0, i32 8
  %32 = getelementptr inbounds [4 x i32], ptr %31, i64 0, i64 0
  %33 = load i32, ptr %32, align 8, !tbaa !43
  store i32 %33, ptr %12, align 4, !tbaa !43
  call void @llvm.lifetime.start.p0(i64 4, ptr %13) #8
  %34 = load i32, ptr %12, align 4, !tbaa !43
  %35 = load i32, ptr %7, align 4, !tbaa !43
  %36 = mul nsw i32 %34, %35
  %37 = load i32, ptr %8, align 4, !tbaa !43
  %38 = sdiv i32 %36, %37
  store i32 %38, ptr %13, align 4, !tbaa !43
  call void @llvm.lifetime.start.p0(i64 4, ptr %14) #8
  %39 = load i32, ptr %12, align 4, !tbaa !43
  %40 = load i32, ptr %7, align 4, !tbaa !43
  %41 = add nsw i32 %40, 1
  %42 = mul nsw i32 %39, %41
  %43 = load i32, ptr %8, align 4, !tbaa !43
  %44 = sdiv i32 %42, %43
  store i32 %44, ptr %14, align 4, !tbaa !43
  call void @llvm.lifetime.start.p0(i64 8, ptr %15) #8
  %45 = load ptr, ptr %10, align 8, !tbaa !9
  %46 = getelementptr inbounds nuw %struct.AVFrame, ptr %45, i32 0, i32 1
  %47 = getelementptr inbounds [8 x i32], ptr %46, i64 0, i64 0
  %48 = load i32, ptr %47, align 8, !tbaa !43
  %49 = sext i32 %48 to i64
  store i64 %49, ptr %15, align 8, !tbaa !61
  call void @llvm.lifetime.start.p0(i64 8, ptr %16) #8
  %50 = load ptr, ptr %10, align 8, !tbaa !9
  %51 = getelementptr inbounds nuw %struct.AVFrame, ptr %50, i32 0, i32 0
  %52 = getelementptr inbounds [8 x ptr], ptr %51, i64 0, i64 0
  %53 = load ptr, ptr %52, align 8, !tbaa !62
  %54 = load i32, ptr %13, align 4, !tbaa !43
  %55 = sext i32 %54 to i64
  %56 = load i64, ptr %15, align 8, !tbaa !61
  %57 = mul nsw i64 %55, %56
  %58 = getelementptr inbounds i8, ptr %53, i64 %57
  store ptr %58, ptr %16, align 8, !tbaa !62
  call void @llvm.lifetime.start.p0(i64 4, ptr %17) #8
  %59 = load ptr, ptr %9, align 8, !tbaa !34
  %60 = getelementptr inbounds nuw %struct.ColorizeContext, ptr %59, i32 0, i32 6
  %61 = getelementptr inbounds [3 x i32], ptr %60, i64 0, i64 0
  %62 = load i32, ptr %61, align 4, !tbaa !43
  store i32 %62, ptr %17, align 4, !tbaa !43
  call void @llvm.lifetime.start.p0(i64 4, ptr %18) #8
  %63 = load ptr, ptr %9, align 8, !tbaa !34
  %64 = getelementptr inbounds nuw %struct.ColorizeContext, ptr %63, i32 0, i32 4
  %65 = load float, ptr %64, align 4, !tbaa !63
  store float %65, ptr %18, align 4, !tbaa !41
  call void @llvm.lifetime.start.p0(i64 4, ptr %19) #8
  %66 = load i32, ptr %13, align 4, !tbaa !43
  store i32 %66, ptr %19, align 4, !tbaa !43
  br label %67

67:                                               ; preds = %101, %4
  %68 = load i32, ptr %19, align 4, !tbaa !43
  %69 = load i32, ptr %14, align 4, !tbaa !43
  %70 = icmp slt i32 %68, %69
  br i1 %70, label %72, label %71

71:                                               ; preds = %67
  store i32 2, ptr %20, align 4
  call void @llvm.lifetime.end.p0(i64 4, ptr %19) #8
  br label %104

72:                                               ; preds = %67
  call void @llvm.lifetime.start.p0(i64 4, ptr %21) #8
  store i32 0, ptr %21, align 4, !tbaa !43
  br label %73

73:                                               ; preds = %94, %72
  %74 = load i32, ptr %21, align 4, !tbaa !43
  %75 = load i32, ptr %11, align 4, !tbaa !43
  %76 = icmp slt i32 %74, %75
  br i1 %76, label %78, label %77

77:                                               ; preds = %73
  store i32 5, ptr %20, align 4
  call void @llvm.lifetime.end.p0(i64 4, ptr %21) #8
  br label %97

78:                                               ; preds = %73
  %79 = load i32, ptr %17, align 4, !tbaa !43
  %80 = sitofp i32 %79 to float
  %81 = load ptr, ptr %16, align 8, !tbaa !62
  %82 = load i32, ptr %21, align 4, !tbaa !43
  %83 = sext i32 %82 to i64
  %84 = getelementptr inbounds i8, ptr %81, i64 %83
  %85 = load i8, ptr %84, align 1, !tbaa !64
  %86 = uitofp i8 %85 to float
  %87 = load float, ptr %18, align 4, !tbaa !41
  %88 = call nsz float @lerpf(float noundef %80, float noundef %86, float noundef %87)
  %89 = fptoui float %88 to i8
  %90 = load ptr, ptr %16, align 8, !tbaa !62
  %91 = load i32, ptr %21, align 4, !tbaa !43
  %92 = sext i32 %91 to i64
  %93 = getelementptr inbounds i8, ptr %90, i64 %92
  store i8 %89, ptr %93, align 1, !tbaa !64
  br label %94

94:                                               ; preds = %78
  %95 = load i32, ptr %21, align 4, !tbaa !43
  %96 = add nsw i32 %95, 1
  store i32 %96, ptr %21, align 4, !tbaa !43
  br label %73, !llvm.loop !65

97:                                               ; preds = %77
  %98 = load i64, ptr %15, align 8, !tbaa !61
  %99 = load ptr, ptr %16, align 8, !tbaa !62
  %100 = getelementptr inbounds i8, ptr %99, i64 %98
  store ptr %100, ptr %16, align 8, !tbaa !62
  br label %101

101:                                              ; preds = %97
  %102 = load i32, ptr %19, align 4, !tbaa !43
  %103 = add nsw i32 %102, 1
  store i32 %103, ptr %19, align 4, !tbaa !43
  br label %67, !llvm.loop !67

104:                                              ; preds = %71
  store i32 1, ptr %20, align 4
  call void @llvm.lifetime.end.p0(i64 4, ptr %18) #8
  call void @llvm.lifetime.end.p0(i64 4, ptr %17) #8
  call void @llvm.lifetime.end.p0(i64 8, ptr %16) #8
  call void @llvm.lifetime.end.p0(i64 8, ptr %15) #8
  call void @llvm.lifetime.end.p0(i64 4, ptr %14) #8
  call void @llvm.lifetime.end.p0(i64 4, ptr %13) #8
  call void @llvm.lifetime.end.p0(i64 4, ptr %12) #8
  call void @llvm.lifetime.end.p0(i64 4, ptr %11) #8
  call void @llvm.lifetime.end.p0(i64 8, ptr %10) #8
  call void @llvm.lifetime.end.p0(i64 8, ptr %9) #8
  ret i32 0
}