; Function Attrs: nofree norecurse nosync nounwind memory(readwrite, inaccessiblemem: none) uwtable
define internal noundef i32 @colorizey_slice8(ptr noundef readonly captures(none) %0, ptr noundef readonly captures(none) %1, i32 noundef %2, i32 noundef %3) #5 {
  %5 = getelementptr inbounds nuw i8, ptr %0, i64 72
  %6 = load ptr, ptr %5, align 8, !tbaa !19
  %7 = getelementptr inbounds nuw i8, ptr %6, i64 40
  %8 = load i32, ptr %7, align 8, !tbaa !35
  %9 = getelementptr inbounds nuw i8, ptr %6, i64 56
  %10 = load i32, ptr %9, align 8, !tbaa !35
  %11 = mul nsw i32 %10, %2
  %12 = sdiv i32 %11, %3
  %13 = add nsw i32 %2, 1
  %14 = mul nsw i32 %10, %13
  %15 = sdiv i32 %14, %3
  %16 = getelementptr inbounds nuw i8, ptr %1, i64 64
  %17 = load i32, ptr %16, align 8, !tbaa !35
  %18 = sext i32 %17 to i64
  %19 = getelementptr inbounds nuw i8, ptr %6, i64 20
  %20 = load float, ptr %19, align 4, !tbaa !49
  %21 = icmp slt i32 %12, %15
  br i1 %21, label %.preheader.lr.ph, label %._crit_edge35

.preheader.lr.ph:                                 ; preds = %4
  %22 = getelementptr inbounds nuw i8, ptr %6, i64 28
  %23 = load i32, ptr %22, align 4, !tbaa !35
  %24 = icmp sgt i32 %8, 0
  %25 = sitofp i32 %23 to float
  br i1 %24, label %.preheader.us.preheader, label %._crit_edge35

.preheader.us.preheader:                          ; preds = %.preheader.lr.ph
  %26 = load ptr, ptr %1, align 8, !tbaa !50
  %27 = sext i32 %12 to i64
  %28 = mul nsw i64 %18, %27
  %29 = getelementptr inbounds i8, ptr %26, i64 %28
  %wide.trip.count = zext nneg i32 %8 to i64
  br label %.preheader.us

.preheader.us:                                    ; preds = %.preheader.us.preheader, %._crit_edge.us
  %.03034.us = phi i32 [ %38, %._crit_edge.us ], [ %12, %.preheader.us.preheader ]
  %.03133.us = phi ptr [ %37, %._crit_edge.us ], [ %29, %.preheader.us.preheader ]
  br label %30

30:                                               ; preds = %.preheader.us, %30
  %indvars.iv = phi i64 [ 0, %.preheader.us ], [ %indvars.iv.next, %30 ]
  %31 = getelementptr inbounds nuw i8, ptr %.03133.us, i64 %indvars.iv
  %32 = load i8, ptr %31, align 1, !tbaa !51
  %33 = uitofp i8 %32 to float
  %34 = fsub nsz float %33, %25
  %35 = tail call nsz noundef float @llvm.fmuladd.f32(float %34, float %20, float %25)
  %36 = fptoui float %35 to i8
  store i8 %36, ptr %31, align 1, !tbaa !51
  %indvars.iv.next = add nuw nsw i64 %indvars.iv, 1
  %exitcond.not = icmp eq i64 %indvars.iv.next, %wide.trip.count
  br i1 %exitcond.not, label %._crit_edge.us, label %30, !llvm.loop !52

._crit_edge.us:                                   ; preds = %30
  %37 = getelementptr inbounds i8, ptr %.03133.us, i64 %18
  %38 = add nsw i32 %.03034.us, 1
  %exitcond38.not = icmp eq i32 %38, %15
  br i1 %exitcond38.not, label %._crit_edge35, label %.preheader.us, !llvm.loop !54

._crit_edge35:                                    ; preds = %._crit_edge.us, %.preheader.lr.ph, %4
  ret i32 0
}